target datalayout = "e-m:e-p270:32:32-p271:32:32-p272:64:64-i64:64-i128:128-f80:128-n8:16:32:64-S128"
target triple = "x86_64-pc-linux-gnu"

%"class.cv::Point_" = type { float, float }
%"struct.cv::detail::ProjectorBase" = type { float, [9 x float], [9 x float], [9 x float], [9 x float], [3 x float] }
%"class.cv::detail::RotationWarperBase" = type { %"class.cv::detail::RotationWarper", %"struct.cv::detail::PlaneProjector" }
%"class.cv::detail::RotationWarper" = type { ptr }
%"struct.cv::detail::PlaneProjector" = type { %"struct.cv::detail::ProjectorBase" }

; Function Attrs: inlinehint mustprogress nounwind uwtable
define linkonce_odr hidden void @_ZN2cv6detail14PlaneProjector11mapBackwardEffRfS2_(ptr noundef nonnull align 4 dereferenceable(160) %0, float noundef %1, float noundef %2, ptr noundef nonnull align 4 dereferenceable(4) %3, ptr noundef nonnull align 4 dereferenceable(4) %4) #5 comdat align 2 {
  %6 = alloca ptr, align 8
  %7 = alloca float, align 4
  %8 = alloca float, align 4
  %9 = alloca ptr, align 8
  %10 = alloca ptr, align 8
  %11 = alloca float, align 4
  store ptr %0, ptr %6, align 8, !tbaa !104
  store float %1, ptr %7, align 4, !tbaa !10
  store float %2, ptr %8, align 4, !tbaa !10
  store ptr %3, ptr %9, align 8, !tbaa !32
  store ptr %4, ptr %10, align 8, !tbaa !32
  %12 = load ptr, ptr %6, align 8
  %13 = load float, ptr %7, align 4, !tbaa !10
  %14 = getelementptr inbounds nuw %"struct.cv::detail::ProjectorBase", ptr %12, i32 0, i32 0
  %15 = load float, ptr %14, align 4, !tbaa !106
  %16 = fdiv float %13, %15
  %17 = getelementptr inbounds nuw %"struct.cv::detail::ProjectorBase", ptr %12, i32 0, i32 5
  %18 = getelementptr inbounds [3 x float], ptr %17, i64 0, i64 0
  %19 = load float, ptr %18, align 4, !tbaa !10
  %20 = fsub float %16, %19
  store float %20, ptr %7, align 4, !tbaa !10
  %21 = load float, ptr %8, align 4, !tbaa !10
  %22 = getelementptr inbounds nuw %"struct.cv::detail::ProjectorBase", ptr %12, i32 0, i32 0
  %23 = load float, ptr %22, align 4, !tbaa !106
  %24 = fdiv float %21, %23
  %25 = getelementptr inbounds nuw %"struct.cv::detail::ProjectorBase", ptr %12, i32 0, i32 5
  %26 = getelementptr inbounds [3 x float], ptr %25, i64 0, i64 1
  %27 = load float, ptr %26, align 4, !tbaa !10
  %28 = fsub float %24, %27
  store float %28, ptr %8, align 4, !tbaa !10
  call void @llvm.lifetime.start.p0(i64 4, ptr %11) #3
  %29 = getelementptr inbounds nuw %"struct.cv::detail::ProjectorBase", ptr %12, i32 0, i32 4
  %30 = getelementptr inbounds [9 x float], ptr %29, i64 0, i64 0
  %31 = load float, ptr %30, align 4, !tbaa !10
  %32 = load float, ptr %7, align 4, !tbaa !10
  %33 = getelementptr inbounds nuw %"struct.cv::detail::ProjectorBase", ptr %12, i32 0, i32 4
  %34 = getelementptr inbounds [9 x float], ptr %33, i64 0, i64 1
  %35 = load float, ptr %34, align 4, !tbaa !10
  %36 = load float, ptr %8, align 4, !tbaa !10
  %37 = fmul float %35, %36
  %38 = call float @llvm.fmuladd.f32(float %31, float %32, float %37)
  %39 = getelementptr inbounds nuw %"struct.cv::detail::ProjectorBase", ptr %12, i32 0, i32 4
  %40 = getelementptr inbounds [9 x float], ptr %39, i64 0, i64 2
  %41 = load float, ptr %40, align 4, !tbaa !10
  %42 = getelementptr inbounds nuw %"struct.cv::detail::ProjectorBase", ptr %12, i32 0, i32 5
  %43 = getelementptr inbounds [3 x float], ptr %42, i64 0, i64 2
  %44 = load float, ptr %43, align 4, !tbaa !10
  %45 = fsub float 1.000000e+00, %44
  %46 = call float @llvm.fmuladd.f32(float %41, float %45, float %38)
  %47 = load ptr, ptr %9, align 8, !tbaa !32
  store float %46, ptr %47, align 4, !tbaa !10
  %48 = getelementptr inbounds nuw %"struct.cv::detail::ProjectorBase", ptr %12, i32 0, i32 4
  %49 = getelementptr inbounds [9 x float], ptr %48, i64 0, i64 3
  %50 = load float, ptr %49, align 4, !tbaa !10
  %51 = load float, ptr %7, align 4, !tbaa !10
  %52 = getelementptr inbounds nuw %"struct.cv::detail::ProjectorBase", ptr %12, i32 0, i32 4
  %53 = getelementptr inbounds [9 x float], ptr %52, i64 0, i64 4
  %54 = load float, ptr %53, align 4, !tbaa !10
  %55 = load float, ptr %8, align 4, !tbaa !10
  %56 = fmul float %54, %55
  %57 = call float @llvm.fmuladd.f32(float %50, float %51, float %56)
  %58 = getelementptr inbounds nuw %"struct.cv::detail::ProjectorBase", ptr %12, i32 0, i32 4
  %59 = getelementptr inbounds [9 x float], ptr %58, i64 0, i64 5
  %60 = load float, ptr %59, align 4, !tbaa !10
  %61 = getelementptr inbounds nuw %"struct.cv::detail::ProjectorBase", ptr %12, i32 0, i32 5
  %62 = getelementptr inbounds [3 x float], ptr %61, i64 0, i64 2
  %63 = load float, ptr %62, align 4, !tbaa !10
  %64 = fsub float 1.000000e+00, %63
  %65 = call float @llvm.fmuladd.f32(float %60, float %64, float %57)
  %66 = load ptr, ptr %10, align 8, !tbaa !32
  store float %65, ptr %66, align 4, !tbaa !10
  %67 = getelementptr inbounds nuw %"struct.cv::detail::ProjectorBase", ptr %12, i32 0, i32 4
  %68 = getelementptr inbounds [9 x float], ptr %67, i64 0, i64 6
  %69 = load float, ptr %68, align 4, !tbaa !10
  %70 = load float, ptr %7, align 4, !tbaa !10
  %71 = getelementptr inbounds nuw %"struct.cv::detail::ProjectorBase", ptr %12, i32 0, i32 4
  %72 = getelementptr inbounds [9 x float], ptr %71, i64 0, i64 7
  %73 = load float, ptr %72, align 4, !tbaa !10
  %74 = load float, ptr %8, align 4, !tbaa !10
  %75 = fmul float %73, %74
  %76 = call float @llvm.fmuladd.f32(float %69, float %70, float %75)
  %77 = getelementptr inbounds nuw %"struct.cv::detail::ProjectorBase", ptr %12, i32 0, i32 4
  %78 = getelementptr inbounds [9 x float], ptr %77, i64 0, i64 8
  %79 = load float, ptr %78, align 4, !tbaa !10
  %80 = getelementptr inbounds nuw %"struct.cv::detail::ProjectorBase", ptr %12, i32 0, i32 5
  %81 = getelementptr inbounds [3 x float], ptr %80, i64 0, i64 2
  %82 = load float, ptr %81, align 4, !tbaa !10
  %83 = fsub float 1.000000e+00, %82
  %84 = call float @llvm.fmuladd.f32(float %79, float %83, float %76)
  store float %84, ptr %11, align 4, !tbaa !10
  %85 = load float, ptr %11, align 4, !tbaa !10
  %86 = load ptr, ptr %9, align 8, !tbaa !32
  %87 = load float, ptr %86, align 4, !tbaa !10
  %88 = fdiv float %87, %85
  store float %88, ptr %86, align 4, !tbaa !10
  %89 = load float, ptr %11, align 4, !tbaa !10
  %90 = load ptr, ptr %10, align 8, !tbaa !32
  %91 = load float, ptr %90, align 4, !tbaa !10
  %92 = fdiv float %91, %89
  store float %92, ptr %90, align 4, !tbaa !10
  call void @llvm.lifetime.end.p0(i64 4, ptr %11) #3
  ret void
}

; Function Attrs: inlinehint mustprogress nounwind uwtable
define linkonce_odr hidden void @_ZN2cv6Point_IfEC2Ev(ptr noundef nonnull align 4 dereferenceable(8) %0) unnamed_addr #5 comdat align 2 {
  %2 = alloca ptr, align 8
  store ptr %0, ptr %2, align 8, !tbaa !57
  %3 = load ptr, ptr %2, align 8
  %4 = getelementptr inbounds nuw %"class.cv::Point_", ptr %3, i32 0, i32 0
  store float 0.000000e+00, ptr %4, align 4, !tbaa !101
  %5 = getelementptr inbounds nuw %"class.cv::Point_", ptr %3, i32 0, i32 1
  store float 0.000000e+00, ptr %5, align 4, !tbaa !103
  ret void
}

; Function Attrs: mustprogress uwtable
define <2 x float> @_ZN2cv6detail11PlaneWarper17warpPointBackwardERKNS_6Point_IfEERKNS_11_InputArrayES8_S8_(ptr noundef nonnull align 8 dereferenceable(168) %0, ptr noundef nonnull align 4 dereferenceable(8) %1, ptr noundef nonnull align 8 dereferenceable(24) %2, ptr noundef nonnull align 8 dereferenceable(24) %3, ptr noundef nonnull align 8 dereferenceable(24) %4) #10 align 2 {
  %6 = alloca %"class.cv::Point_", align 4
  %7 = alloca ptr, align 8
  %8 = alloca ptr, align 8
  %9 = alloca ptr, align 8
  %10 = alloca ptr, align 8
  %11 = alloca ptr, align 8
  store ptr %0, ptr %7, align 8, !tbaa !99
  store ptr %1, ptr %8, align 8, !tbaa !57
  store ptr %2, ptr %9, align 8, !tbaa !59
  store ptr %3, ptr %10, align 8, !tbaa !59
  store ptr %4, ptr %11, align 8, !tbaa !59
  %12 = load ptr, ptr %7, align 8
  %13 = getelementptr inbounds nuw %"class.cv::detail::RotationWarperBase", ptr %12, i32 0, i32 1
  %14 = load ptr, ptr %9, align 8, !tbaa !59
  %15 = load ptr, ptr %10, align 8, !tbaa !59
  %16 = load ptr, ptr %11, align 8, !tbaa !59
  call void @_ZN2cv6detail13ProjectorBase15setCameraParamsERKNS_11_InputArrayES4_S4_(ptr noundef nonnull align 4 dereferenceable(160) %13, ptr noundef nonnull align 8 dereferenceable(24) %14, ptr noundef nonnull align 8 dereferenceable(24) %15, ptr noundef nonnull align 8 dereferenceable(24) %16)
  call void @_ZN2cv6Point_IfEC2Ev(ptr noundef nonnull align 4 dereferenceable(8) %6)
  %17 = getelementptr inbounds nuw %"class.cv::detail::RotationWarperBase", ptr %12, i32 0, i32 1
  %18 = load ptr, ptr %8, align 8, !tbaa !57
  %19 = getelementptr inbounds nuw %"class.cv::Point_", ptr %18, i32 0, i32 0
  %20 = load float, ptr %19, align 4, !tbaa !101
  %21 = load ptr, ptr %8, align 8, !tbaa !57
  %22 = getelementptr inbounds nuw %"class.cv::Point_", ptr %21, i32 0, i32 1
  %23 = load float, ptr %22, align 4, !tbaa !103
  %24 = getelementptr inbounds nuw %"class.cv::Point_", ptr %6, i32 0, i32 0
  %25 = getelementptr inbounds nuw %"class.cv::Point_", ptr %6, i32 0, i32 1
  call void @_ZN2cv6detail14PlaneProjector11mapBackwardEffRfS2_(ptr noundef nonnull align 4 dereferenceable(160) %17, float noundef %20, float noundef %23, ptr noundef nonnull align 4 dereferenceable(4) %24, ptr noundef nonnull align 4 dereferenceable(4) %25)
  %26 = load <2 x float>, ptr %6, align 4
  ret <2 x float> %26
}