; Function Attrs: mustprogress uwtable
define <2 x float> @_ZN2cv6detail11PlaneWarper17warpPointBackwardERKNS_6Point_IfEERKNS_11_InputArrayES8_S8_(ptr noundef nonnull align 8 captures(none) dereferenceable(168) %0, ptr noundef nonnull readonly align 4 captures(none) dereferenceable(8) %1, ptr noundef nonnull align 8 dereferenceable(24) %2, ptr noundef nonnull align 8 dereferenceable(24) %3, ptr noundef nonnull align 8 dereferenceable(24) %4) local_unnamed_addr #8 align 2 {
  %6 = getelementptr inbounds nuw i8, ptr %0, i64 8
  tail call void @_ZN2cv6detail13ProjectorBase15setCameraParamsERKNS_11_InputArrayES4_S4_(ptr noundef nonnull align 4 dereferenceable(160) %6, ptr noundef nonnull align 8 dereferenceable(24) %2, ptr noundef nonnull align 8 dereferenceable(24) %3, ptr noundef nonnull align 8 dereferenceable(24) %4)
  %7 = load float, ptr %1, align 4, !tbaa !198
  %8 = getelementptr inbounds nuw i8, ptr %1, i64 4
  %9 = load float, ptr %8, align 4, !tbaa !200
  %10 = load float, ptr %6, align 8, !tbaa !201
  %11 = fdiv float %7, %10
  %12 = getelementptr inbounds nuw i8, ptr %0, i64 156
  %13 = load float, ptr %12, align 4, !tbaa !180
  %14 = fsub float %11, %13
  %15 = fdiv float %9, %10
  %16 = getelementptr inbounds nuw i8, ptr %0, i64 160
  %17 = load float, ptr %16, align 8, !tbaa !180
  %18 = fsub float %15, %17
  %19 = getelementptr inbounds nuw i8, ptr %0, i64 120
  %20 = load float, ptr %19, align 8, !tbaa !180
  %21 = getelementptr inbounds nuw i8, ptr %0, i64 124
  %22 = load float, ptr %21, align 4, !tbaa !180
  %23 = fmul float %18, %22
  %24 = tail call float @llvm.fmuladd.f32(float %20, float %14, float %23)
  %25 = getelementptr inbounds nuw i8, ptr %0, i64 128
  %26 = load float, ptr %25, align 8, !tbaa !180
  %27 = getelementptr inbounds nuw i8, ptr %0, i64 164
  %28 = load float, ptr %27, align 4, !tbaa !180
  %29 = fsub float 1.000000e+00, %28
  %30 = tail call float @llvm.fmuladd.f32(float %26, float %29, float %24)
  %31 = getelementptr inbounds nuw i8, ptr %0, i64 132
  %32 = load float, ptr %31, align 4, !tbaa !180
  %33 = getelementptr inbounds nuw i8, ptr %0, i64 136
  %34 = load float, ptr %33, align 8, !tbaa !180
  %35 = fmul float %18, %34
  %36 = tail call float @llvm.fmuladd.f32(float %32, float %14, float %35)
  %37 = getelementptr inbounds nuw i8, ptr %0, i64 140
  %38 = load float, ptr %37, align 4, !tbaa !180
  %39 = tail call float @llvm.fmuladd.f32(float %38, float %29, float %36)
  %40 = getelementptr inbounds nuw i8, ptr %0, i64 144
  %41 = load float, ptr %40, align 8, !tbaa !180
  %42 = getelementptr inbounds nuw i8, ptr %0, i64 148
  %43 = load float, ptr %42, align 4, !tbaa !180
  %44 = fmul float %18, %43
  %45 = tail call float @llvm.fmuladd.f32(float %41, float %14, float %44)
  %46 = getelementptr inbounds nuw i8, ptr %0, i64 152
  %47 = load float, ptr %46, align 8, !tbaa !180
  %48 = tail call float @llvm.fmuladd.f32(float %47, float %29, float %45)
  %49 = fdiv float %30, %48
  %50 = insertelement <2 x float> poison, float %49, i64 0
  %51 = fdiv float %39, %48
  %.sroa.0.4.vec.insert14 = insertelement <2 x float> %50, float %51, i64 1
  ret <2 x float> %.sroa.0.4.vec.insert14
}